target datalayout = "e-m:e-p270:32:32-p271:32:32-p272:64:64-i64:64-i128:128-f80:128-n8:16:32:64-S128"
target triple = "x86_64-pc-linux-gnu"

%struct.pkcs7_st = type { ptr, i64, i32, i32, ptr, %union.anon, %struct.PKCS7_CTX_st }
%union.anon = type { ptr }
%struct.PKCS7_CTX_st = type { ptr, ptr }

@PKCS7_it.local_it = internal constant { i8, [7 x i8], i64, ptr, i64, ptr, i64, ptr } { i8 6, [7 x i8] zeroinitializer, i64 16, ptr @PKCS7_seq_tt, i64 2, ptr @PKCS7_aux, i64 56, ptr @.str }, align 8
@.str.1 = private unnamed_addr constant [35 x i8] c"../openssl/crypto/pkcs7/pk7_asn1.c\00", align 1

; Function Attrs: nounwind uwtable
define ptr @PKCS7_it() #0 {
  ret ptr @PKCS7_it.local_it
}

; Function Attrs: nounwind uwtable
define void @PKCS7_free(ptr noundef %0) #0 {
  %2 = alloca ptr, align 8
  store ptr %0, ptr %2, align 8, !tbaa !16
  %3 = load ptr, ptr %2, align 8, !tbaa !16
  %4 = icmp ne ptr %3, null
  br i1 %4, label %5, label %12

5:                                                ; preds = %1
  %6 = load ptr, ptr %2, align 8, !tbaa !16
  %7 = getelementptr inbounds nuw %struct.pkcs7_st, ptr %6, i32 0, i32 6
  %8 = getelementptr inbounds nuw %struct.PKCS7_CTX_st, ptr %7, i32 0, i32 1
  %9 = load ptr, ptr %8, align 8, !tbaa !23
  call void @CRYPTO_free(ptr noundef %9, ptr noundef @.str.1, i32 noundef 116)
  %10 = load ptr, ptr %2, align 8, !tbaa !16
  %11 = call ptr @PKCS7_it()
  call void @ASN1_item_free(ptr noundef %10, ptr noundef %11)
  br label %12

12:                                               ; preds = %5, %1
  ret void
}