; Function Attrs: nounwind uwtable
define void @PKCS7_free(ptr noundef %0) local_unnamed_addr #1 {
  %.not = icmp eq ptr %0, null
  br i1 %.not, label %5, label %2

2:                                                ; preds = %1
  %3 = getelementptr inbounds nuw i8, ptr %0, i64 48
  %4 = load ptr, ptr %3, align 8, !tbaa !16
  tail call void @CRYPTO_free(ptr noundef %4, ptr noundef nonnull @.str.1, i32 noundef 116) #3
  tail call void @ASN1_item_free(ptr noundef nonnull %0, ptr noundef nonnull @PKCS7_it.local_it) #3
  br label %5

5:                                                ; preds = %2, %1
  ret void
}